Certificate:
    Data:
        Version: 3 (0x2)
        Serial Number: 5 (0x5)
        Signature Algorithm: sha256WithRSAEncryption
        Issuer: CN=LA Hack 2016
        Validity
            Not Before: Jul 27 21:55:30 2016 GMT
            Not After : Jul 25 21:55:30 2026 GMT
        Subject: CN=gnuclient
        Subject Public Key Info:
            Public Key Algorithm: rsaEncryption
            RSA Public Key: (2048 bit)
                Modulus (2048 bit):
                    00:b9:54:2d:9c:79:bc:7d:a4:76:a3:9e:9a:b7:de:
                    0a:b0:4b:c2:ab:cb:0a:58:eb:b1:aa:2a:07:d2:c7:
                    97:e6:26:34:56:98:70:7d:09:41:73:94:de:99:39:
                    14:ae:60:aa:3a:06:b5:99:9e:da:ef:c9:b7:ea:99:
                    d1:c2:ac:72:7c:10:7b:f9:92:31:dc:b2:ad:a2:65:
                    9a:b5:04:12:57:f4:80:06:b3:bb:26:e3:72:97:9f:
                    96:12:ab:f3:71:12:cb:ca:72:b3:c4:dd:80:0f:19:
                    c6:95:9b:7b:c6:46:b9:3c:bc:87:57:14:48:af:f2:
                    f1:0e:f4:7a:6e:61:0a:32:37:4c:68:51:b3:1c:d2:
                    e7:77:54:4c:86:46:10:4a:71:b3:fc:80:bd:72:0f:
                    07:66:1e:73:4d:11:c0:33:44:2e:41:48:10:41:9c:
                    21:04:a4:b5:18:34:e9:dd:8e:82:96:82:96:85:ff:
                    b7:89:f3:7d:b2:ce:10:d4:4e:be:bf:d7:d8:da:66:
                    38:0d:83:90:1f:9f:b3:7a:98:13:1b:38:f8:af:fe:
                    51:0c:63:d8:4a:18:84:30:d9:b8:c4:c4:ea:cd:23:
                    71:b9:a9:0f:c6:e3:9a:a3:c3:0b:c8:68:21:51:0e:
                    c1:36:f6:d4:c2:30:01:98:fe:05:81:63:91:47:69:
                    c9:15
                Exponent: 65537 (0x10001)
        X509v3 extensions:
            X509v3 Basic Constraints: 
                CA:FALSE
            X509v3 Subject Key Identifier: 
                52:2D:32:31:C2:0F:7D:0F:88:BF:36:DC:D2:EC:C4:7A:CC:64:BF:35
            X509v3 Authority Key Identifier: 
                keyid:A9:EB:F5:56:6B:35:8B:EB:93:FE:27:7F:41:53:E8:E4:F2:42:DE:24
                DirName:/CN=LA Hack 2016
                serial:C0:19:47:B6:66:BA:5E:D6

            X509v3 Extended Key Usage: 
                TLS Web Client Authentication
            X509v3 Key Usage: 
                Digital Signature
    Signature Algorithm: sha256WithRSAEncryption
        2e:f2:8c:c2:2f:38:34:51:cc:ba:21:79:d6:c1:56:68:c6:c4:
        da:dc:d8:05:40:21:c1:6e:58:40:73:eb:63:1f:bc:41:8f:89:
        0d:a4:13:3a:03:5c:fd:10:a4:d5:c1:ae:7d:e1:cb:c9:1d:13:
        69:2b:6b:21:5a:c5:d3:38:a1:49:4b:77:a8:a9:a2:2b:92:cc:
        e5:f7:85:64:37:59:aa:72:ae:9d:5d:14:88:d8:52:96:81:63:
        8e:be:12:cb:78:fd:cc:1d:e2:4b:55:6d:f0:1e:a4:89:97:1e:
        b4:de:b7:13:57:f9:3a:c0:ee:a4:de:6b:4a:b3:51:bf:fe:23:
        c7:c0:c7:9e:b8:29:7e:06:d3:5c:6f:cd:ac:ca:42:5e:a2:b8:
        2e:51:18:c4:04:6a:a8:b3:3e:37:b6:8e:93:f2:0e:fe:36:38:
        56:87:d2:e7:d1:d6:d0:8b:d5:cc:e8:1a:8f:b0:72:1f:eb:4a:
        32:bc:db:bd:0a:78:f8:f1:d3:71:fe:9f:a5:3f:60:e3:29:92:
        98:b2:2c:35:e0:1d:ce:da:18:23:ca:11:da:99:fa:fb:e4:82:
        f8:30:5a:4f:a9:13:ab:8a:81:ab:97:e5:11:85:5f:b8:e7:da:
        d4:36:57:d5:6e:d5:e2:d1:19:82:c6:e3:cc:81:0f:c5:b3:85:
        99:3c:ae:31
-----BEGIN CERTIFICATE-----
MIIDPzCCAiegAwIBAgIBBTANBgkqhkiG9w0BAQsFADAXMRUwEwYDVQQDDAxMQSBI
YWNrIDIwMTYwHhcNMTYwNzI3MjE1NTMwWhcNMjYwNzI1MjE1NTMwWjAUMRIwEAYD
VQQDDAlnbnVjbGllbnQwggEiMA0GCSqGSIb3DQEBAQUAA4IBDwAwggEKAoIBAQC5
VC2cebx9pHajnpq33gqwS8KrywpY67GqKgfSx5fmJjRWmHB9CUFzlN6ZORSuYKo6
BrWZntrvybfqmdHCrHJ8EHv5kjHcsq2iZZq1BBJX9IAGs7sm43KXn5YSq/NxEsvK
crPE3YAPGcaVm3vGRrk8vIdXFEiv8vEO9HpuYQoyN0xoUbMc0ud3VEyGRhBKcbP8
gL1yDwdmHnNNEcAzRC5BSBBBnCEEpLUYNOndjoKWgpaF/7eJ832yzhDUTr6/19ja
ZjgNg5Afn7N6mBMbOPiv/lEMY9hKGIQw2bjExOrNI3G5qQ/G45qjwwvIaCFRDsE2
9tTCMAGY/gWBY5FHackVAgMBAAGjgZgwgZUwCQYDVR0TBAIwADAdBgNVHQ4EFgQU
Ui0yMcIPfQ+Ivzbc0uzEesxkvzUwRwYDVR0jBEAwPoAUqev1Vms1i+uT/id/QVPo
5PJC3iShG6QZMBcxFTATBgNVBAMMDExBIEhhY2sgMjAxNoIJAMAZR7Zmul7WMBMG
A1UdJQQMMAoGCCsGAQUFBwMCMAsGA1UdDwQEAwIHgDANBgkqhkiG9w0BAQsFAAOC
AQEALvKMwi84NFHMuiF51sFWaMbE2tzYBUAhwW5YQHPrYx+8QY+JDaQTOgNc/RCk
1cGufeHLyR0TaStrIVrF0zihSUt3qKmiK5LM5feFZDdZqnKunV0UiNhSloFjjr4S
y3j9zB3iS1Vt8B6kiZcetN63E1f5OsDupN5rSrNRv/4jx8DHnrgpfgbTXG/NrMpC
XqK4LlEYxARqqLM+N7aOk/IO/jY4VofS59HW0IvVzOgaj7ByH+tKMrzbvQp4+PHT
cf6fpT9g4ymSmLIsNeAdztoYI8oR2pn6++SC+DBaT6kTq4qBq5flEYVfuOfa1DZX
1W7V4tEZgsbjzIEPxbOFmTyuMQ==
-----END CERTIFICATE-----
