Certificate:
    Data:
        Version: 3 (0x2)
        Serial Number: 1 (0x1)
        Signature Algorithm: sha256WithRSAEncryption
        Issuer: CN=LA Hack 2016
        Validity
            Not Before: Jul 27 20:11:46 2016 GMT
            Not After : Jul 25 20:11:46 2026 GMT
        Subject: CN=server
        Subject Public Key Info:
            Public Key Algorithm: rsaEncryption
            RSA Public Key: (2048 bit)
                Modulus (2048 bit):
                    00:a5:57:aa:9c:12:10:72:9e:52:c5:93:57:a3:77:
                    f5:4c:9e:51:8b:1f:93:73:09:51:3a:c4:71:40:66:
                    3f:0e:88:46:b1:ba:57:7a:52:11:f2:5d:84:aa:4e:
                    56:1f:96:a3:cb:30:37:91:d3:ef:ad:3f:7b:d9:91:
                    88:c6:04:54:8c:20:7a:34:15:d5:d0:d7:60:e8:dd:
                    fe:5a:d9:bd:be:a2:57:07:14:d6:92:9f:c3:24:68:
                    dc:0b:9b:74:49:74:2b:7f:1d:83:91:af:2a:36:57:
                    d4:a5:2f:1a:77:6a:aa:0f:80:e3:16:4e:de:27:e9:
                    11:cb:b5:72:0b:87:dd:ab:68:f7:cc:63:92:fa:40:
                    23:77:53:b3:ae:56:3f:f1:4d:ff:aa:7f:ba:cd:72:
                    eb:f3:83:a4:34:6b:eb:97:82:01:50:6c:cd:71:8a:
                    ec:74:7b:ad:d7:27:ad:2b:bc:20:59:1b:9d:03:bd:
                    45:fd:d6:43:94:52:23:24:c5:2a:e5:5c:c8:95:41:
                    75:25:15:06:a9:bc:f8:ec:4e:02:1a:16:38:42:9c:
                    df:9a:4d:b5:a1:aa:fd:f3:44:0a:12:e9:6f:e0:a8:
                    b1:e4:b9:47:3c:7c:fd:0c:0b:c9:73:f8:7e:25:07:
                    7c:61:6b:52:e0:3a:69:f0:75:a1:b4:64:16:00:7d:
                    8b:5b
                Exponent: 65537 (0x10001)
        X509v3 extensions:
            X509v3 Basic Constraints: 
                CA:FALSE
            X509v3 Subject Key Identifier: 
                A2:61:AC:5A:B7:00:B8:AF:53:73:F2:41:14:96:02:05:A0:C4:EE:69
            X509v3 Authority Key Identifier: 
                keyid:A9:EB:F5:56:6B:35:8B:EB:93:FE:27:7F:41:53:E8:E4:F2:42:DE:24
                DirName:/CN=LA Hack 2016
                serial:C0:19:47:B6:66:BA:5E:D6

            X509v3 Extended Key Usage: 
                TLS Web Server Authentication
            X509v3 Key Usage: 
                Digital Signature, Key Encipherment
    Signature Algorithm: sha256WithRSAEncryption
        04:a1:a3:70:81:c1:38:05:4f:3b:53:15:70:59:d4:24:7e:8c:
        86:38:76:d5:30:80:76:a6:fe:2c:e3:78:47:00:50:16:ed:06:
        0d:c8:0e:44:6f:52:10:25:db:75:88:fc:0f:1d:eb:63:1c:0c:
        fa:a2:31:d0:27:23:6e:a5:95:18:6a:3e:a4:a7:fb:55:9a:e4:
        ee:c5:57:fb:b8:8e:3a:4f:0d:c5:63:2a:77:9d:8b:ab:44:ee:
        cd:d5:50:b2:e9:ad:0c:a7:a0:c0:18:51:65:30:25:53:6b:c2:
        d5:df:83:c6:fc:2f:7f:25:9f:3c:92:00:95:cf:03:44:2a:c1:
        c1:d7:b7:ab:43:d5:7d:b5:6f:4d:15:e2:1f:c3:92:5c:a5:b5:
        eb:ee:8e:fb:e7:fc:49:2c:52:83:46:28:ab:7f:ec:e5:23:fa:
        3d:c0:41:05:ba:ac:38:69:31:bb:3a:3d:b9:e6:64:c4:05:26:
        a7:e6:2f:40:52:0c:f5:6e:f6:13:02:b9:81:76:c4:c3:f2:68:
        29:d8:61:32:f4:a4:2a:4c:2c:dc:6c:c8:cf:10:4b:f5:1b:a2:
        e3:03:55:5c:44:47:1c:81:dc:df:9a:76:14:90:2a:85:94:cf:
        8b:e3:b5:c5:44:a6:58:d2:bc:d4:ff:9e:6e:bd:74:15:d7:37:
        aa:e6:ad:0e
-----BEGIN CERTIFICATE-----
MIIDPDCCAiSgAwIBAgIBATANBgkqhkiG9w0BAQsFADAXMRUwEwYDVQQDDAxMQSBI
YWNrIDIwMTYwHhcNMTYwNzI3MjAxMTQ2WhcNMjYwNzI1MjAxMTQ2WjARMQ8wDQYD
VQQDDAZzZXJ2ZXIwggEiMA0GCSqGSIb3DQEBAQUAA4IBDwAwggEKAoIBAQClV6qc
EhBynlLFk1ejd/VMnlGLH5NzCVE6xHFAZj8OiEaxuld6UhHyXYSqTlYflqPLMDeR
0++tP3vZkYjGBFSMIHo0FdXQ12Do3f5a2b2+olcHFNaSn8MkaNwLm3RJdCt/HYOR
ryo2V9SlLxp3aqoPgOMWTt4n6RHLtXILh92raPfMY5L6QCN3U7OuVj/xTf+qf7rN
cuvzg6Q0a+uXggFQbM1xiux0e63XJ60rvCBZG50DvUX91kOUUiMkxSrlXMiVQXUl
FQapvPjsTgIaFjhCnN+aTbWhqv3zRAoS6W/gqLHkuUc8fP0MC8lz+H4lB3xha1Lg
OmnwdaG0ZBYAfYtbAgMBAAGjgZgwgZUwCQYDVR0TBAIwADAdBgNVHQ4EFgQUomGs
WrcAuK9Tc/JBFJYCBaDE7mkwRwYDVR0jBEAwPoAUqev1Vms1i+uT/id/QVPo5PJC
3iShG6QZMBcxFTATBgNVBAMMDExBIEhhY2sgMjAxNoIJAMAZR7Zmul7WMBMGA1Ud
JQQMMAoGCCsGAQUFBwMBMAsGA1UdDwQEAwIFoDANBgkqhkiG9w0BAQsFAAOCAQEA
BKGjcIHBOAVPO1MVcFnUJH6Mhjh21TCAdqb+LON4RwBQFu0GDcgORG9SECXbdYj8
Dx3rYxwM+qIx0CcjbqWVGGo+pKf7VZrk7sVX+7iOOk8NxWMqd52Lq0TuzdVQsumt
DKegwBhRZTAlU2vC1d+DxvwvfyWfPJIAlc8DRCrBwde3q0PVfbVvTRXiH8OSXKW1
6+6O++f8SSxSg0Yoq3/s5SP6PcBBBbqsOGkxuzo9ueZkxAUmp+YvQFIM9W72EwK5
gXbEw/JoKdhhMvSkKkws3GzIzxBL9Rui4wNVXERHHIHc35p2FJAqhZTPi+O1xUSm
WNK81P+ebr10Fdc3quatDg==
-----END CERTIFICATE-----
