Certificate:
    Data:
        Version: 3 (0x2)
        Serial Number: 4 (0x4)
        Signature Algorithm: sha256WithRSAEncryption
        Issuer: CN=LA Hack 2016
        Validity
            Not Before: Jul 27 21:06:44 2016 GMT
            Not After : Jul 25 21:06:44 2026 GMT
        Subject: CN=localhost
        Subject Public Key Info:
            Public Key Algorithm: rsaEncryption
            RSA Public Key: (2048 bit)
                Modulus (2048 bit):
                    00:a9:fe:83:e8:ff:eb:21:4b:2a:16:fe:9a:89:c9:
                    b3:3a:a1:9e:c4:17:fb:cc:f6:fa:d6:1c:36:a0:6f:
                    55:eb:d2:d7:e7:5f:fb:cf:fb:85:7a:a4:f7:ea:7a:
                    7a:14:e5:13:b3:6a:cb:14:f4:4b:52:03:ec:ed:13:
                    58:6c:42:66:40:37:c3:01:1d:2b:05:ab:d6:b8:33:
                    e2:df:c2:58:8f:88:0f:f8:a3:0f:9a:f8:37:6c:51:
                    6c:ee:09:39:aa:fa:a2:27:9c:3b:dd:f9:78:0e:cf:
                    23:a5:13:11:f7:76:70:c2:ab:30:17:fb:9a:6a:12:
                    a8:e9:a6:c8:82:68:80:e8:b2:01:44:4a:42:bd:6f:
                    1b:9e:91:2f:e5:d6:5f:8f:d5:91:29:2c:1c:fa:d2:
                    5d:4f:e9:66:bb:b9:a4:76:a3:75:7b:6b:23:b9:41:
                    c0:38:8b:70:83:4e:75:6b:2a:24:af:90:dc:4f:2f:
                    d3:f4:c3:67:f9:cb:58:ea:53:d8:95:f6:19:aa:b7:
                    91:44:17:2d:66:99:bc:a1:f8:fd:1f:4e:4a:85:6e:
                    55:1f:23:ce:a7:d2:0d:31:78:b8:b0:ac:42:d8:32:
                    c6:10:d2:c5:b5:11:a7:71:b4:ef:63:27:f6:94:9a:
                    1c:0a:e1:4b:7f:48:4f:e0:6b:11:28:d4:08:8b:2c:
                    0c:cf
                Exponent: 65537 (0x10001)
        X509v3 extensions:
            X509v3 Basic Constraints:
                CA:FALSE
            X509v3 Subject Key Identifier:
                F1:40:FB:90:3E:2F:D1:AD:D8:F0:97:7E:B3:E0:A6:DF:75:E9:DD:2D
            X509v3 Authority Key Identifier:
                keyid:A9:EB:F5:56:6B:35:8B:EB:93:FE:27:7F:41:53:E8:E4:F2:42:DE:24
                DirName:/CN=LA Hack 2016
                serial:C0:19:47:B6:66:BA:5E:D6

            X509v3 Extended Key Usage:
                TLS Web Server Authentication
            X509v3 Key Usage:
                Digital Signature, Key Encipherment
    Signature Algorithm: sha256WithRSAEncryption
        70:7a:88:25:90:43:d5:c2:f2:58:62:e9:30:6b:4e:52:1e:ff:
        2a:f7:8e:bc:bf:1f:17:e0:ee:8b:34:1e:33:52:59:09:af:76:
        b9:23:69:56:cd:13:8c:62:1e:56:04:68:57:e9:f9:13:03:8f:
        c0:40:4a:6c:34:fd:d1:db:71:b5:0d:ec:9b:06:00:a8:0d:30:
        02:eb:36:f0:e3:9e:5c:b7:92:7c:92:e3:db:58:22:62:b1:62:
        fb:68:20:0e:d7:89:87:a7:46:62:cb:fd:53:ce:bd:f0:23:30:
        8c:b1:ba:0d:12:40:f7:fc:f8:83:df:c3:88:0f:28:2f:b4:48:
        e6:67:e0:2c:5a:6a:a0:f8:89:3c:c6:1f:bd:e1:0c:6b:9d:4b:
        39:d4:72:0c:de:a2:ea:1b:0a:02:fe:86:90:c3:80:98:de:dd:
        e4:6f:f9:93:8b:ea:45:32:2f:c0:ab:82:e3:bb:1b:a8:5d:a5:
        e8:12:b3:89:55:fa:83:3d:91:65:47:57:04:c2:05:a0:31:5b:
        21:45:17:86:8a:91:67:8b:74:85:d6:63:b3:21:20:85:18:ab:
        c3:89:91:f5:6c:5f:93:1a:d8:55:ee:9e:32:81:d8:50:1b:6f:
        10:b1:9f:f4:37:55:66:56:2a:ba:c3:d7:e6:d7:47:1d:bb:0a:
        27:c5:15:05
-----BEGIN CERTIFICATE-----
MIIDPzCCAiegAwIBAgIBBDANBgkqhkiG9w0BAQsFADAXMRUwEwYDVQQDDAxMQSBI
YWNrIDIwMTYwHhcNMTYwNzI3MjEwNjQ0WhcNMjYwNzI1MjEwNjQ0WjAUMRIwEAYD
VQQDDAlsb2NhbGhvc3QwggEiMA0GCSqGSIb3DQEBAQUAA4IBDwAwggEKAoIBAQCp
/oPo/+shSyoW/pqJybM6oZ7EF/vM9vrWHDagb1Xr0tfnX/vP+4V6pPfqenoU5ROz
assU9EtSA+ztE1hsQmZAN8MBHSsFq9a4M+LfwliPiA/4ow+a+DdsUWzuCTmq+qIn
nDvd+XgOzyOlExH3dnDCqzAX+5pqEqjppsiCaIDosgFESkK9bxuekS/l1l+P1ZEp
LBz60l1P6Wa7uaR2o3V7ayO5QcA4i3CDTnVrKiSvkNxPL9P0w2f5y1jqU9iV9hmq
t5FEFy1mmbyh+P0fTkqFblUfI86n0g0xeLiwrELYMsYQ0sW1EadxtO9jJ/aUmhwK
4Ut/SE/gaxEo1AiLLAzPAgMBAAGjgZgwgZUwCQYDVR0TBAIwADAdBgNVHQ4EFgQU
8UD7kD4v0a3Y8Jd+s+Cm33Xp3S0wRwYDVR0jBEAwPoAUqev1Vms1i+uT/id/QVPo
5PJC3iShG6QZMBcxFTATBgNVBAMMDExBIEhhY2sgMjAxNoIJAMAZR7Zmul7WMBMG
A1UdJQQMMAoGCCsGAQUFBwMBMAsGA1UdDwQEAwIFoDANBgkqhkiG9w0BAQsFAAOC
AQEAcHqIJZBD1cLyWGLpMGtOUh7/KveOvL8fF+DuizQeM1JZCa92uSNpVs0TjGIe
VgRoV+n5EwOPwEBKbDT90dtxtQ3smwYAqA0wAus28OOeXLeSfJLj21giYrFi+2gg
DteJh6dGYsv9U8698CMwjLG6DRJA9/z4g9/DiA8oL7RI5mfgLFpqoPiJPMYfveEM
a51LOdRyDN6i6hsKAv6GkMOAmN7d5G/5k4vqRTIvwKuC47sbqF2l6BKziVX6gz2R
ZUdXBMIFoDFbIUUXhoqRZ4t0hdZjsyEghRirw4mR9WxfkxrYVe6eMoHYUBtvELGf
9DdVZlYqusPX5tdHHbsKJ8UVBQ==
-----END CERTIFICATE-----
