Certificate:
    Data:
        Version: 3 (0x2)
        Serial Number: 2 (0x2)
        Signature Algorithm: sha256WithRSAEncryption
        Issuer: CN=LA Hack 2016
        Validity
            Not Before: Jul 27 20:13:05 2016 GMT
            Not After : Jul 25 20:13:05 2026 GMT
        Subject: CN=androidclient
        Subject Public Key Info:
            Public Key Algorithm: rsaEncryption
            RSA Public Key: (2048 bit)
                Modulus (2048 bit):
                    00:ed:8b:52:25:6b:de:9b:03:90:bb:20:52:16:8e:
                    20:7a:8f:e6:d6:61:41:39:dd:1d:29:52:a3:bf:53:
                    43:06:c1:f1:17:f6:fd:4a:8c:69:1f:b1:00:ac:74:
                    fd:7f:85:9e:b8:d2:e6:82:6d:28:ad:c0:b1:66:69:
                    6d:b6:21:67:8f:ce:24:73:8d:5c:f3:63:d2:18:d2:
                    e4:09:8b:82:91:1e:ed:78:b1:db:69:ec:b4:03:cd:
                    12:00:b7:1f:f4:57:c7:05:47:18:01:95:78:b1:67:
                    c9:fe:f7:fd:ce:01:76:58:9d:3e:a8:6c:6c:78:40:
                    f3:a9:73:4c:5c:ae:31:b5:70:58:d9:29:9f:6d:ba:
                    af:22:c3:14:03:d6:33:cf:47:92:9f:9a:a5:87:37:
                    aa:3a:03:21:f9:a2:6b:ea:af:5e:38:ab:77:ce:b1:
                    33:d1:71:2d:77:82:49:7a:c7:e3:e6:63:d0:08:42:
                    20:fa:75:99:37:93:27:b2:bc:1b:93:8f:4f:e2:81:
                    3c:7c:5a:b0:71:49:a8:04:fe:a3:b8:5d:d7:fb:54:
                    5c:ee:97:be:d2:3c:61:d7:31:c9:f2:2f:23:d8:87:
                    75:db:6d:c6:bd:f6:1f:9d:c7:99:5d:fa:f9:9f:7b:
                    06:d5:43:e5:ee:14:08:6c:fa:f0:36:aa:1d:e8:ec:
                    14:57
                Exponent: 65537 (0x10001)
        X509v3 extensions:
            X509v3 Basic Constraints: 
                CA:FALSE
            X509v3 Subject Key Identifier: 
                27:CC:A9:8F:02:4D:B7:AF:75:7A:1B:A6:72:C9:56:D2:4F:9E:5E:61
            X509v3 Authority Key Identifier: 
                keyid:A9:EB:F5:56:6B:35:8B:EB:93:FE:27:7F:41:53:E8:E4:F2:42:DE:24
                DirName:/CN=LA Hack 2016
                serial:C0:19:47:B6:66:BA:5E:D6

            X509v3 Extended Key Usage: 
                TLS Web Client Authentication
            X509v3 Key Usage: 
                Digital Signature
    Signature Algorithm: sha256WithRSAEncryption
        76:8d:3d:81:49:e1:02:67:61:60:7d:32:cb:6c:87:c5:a2:01:
        80:23:af:50:65:76:8c:91:d5:62:9e:2f:a0:16:ce:b7:5d:dd:
        60:eb:f5:7b:6a:a3:ff:85:d2:58:ee:e4:d1:63:16:1c:98:77:
        9b:fb:36:1c:a1:8e:4f:f1:f6:36:0d:db:77:3f:72:99:92:09:
        d3:4c:50:20:5c:d0:d1:fb:3a:af:b8:a0:26:3e:85:c7:a1:eb:
        8a:07:3e:f0:b5:44:d8:9e:57:56:c5:6b:d4:5f:0d:ac:d5:44:
        71:43:81:e0:4c:88:21:59:6c:63:b4:d5:93:2f:09:33:2c:ab:
        c8:ec:52:4b:e7:04:ce:5a:60:c0:94:6d:30:22:26:9d:bb:63:
        4f:87:78:81:07:2a:62:9a:5c:4b:cb:36:19:4e:c1:28:77:eb:
        74:cf:3f:b5:46:17:37:3f:44:86:63:77:db:51:59:d9:e9:3f:
        d6:af:39:e0:55:d3:e0:a9:15:50:f0:49:3f:62:00:db:92:82:
        13:0a:5b:41:44:58:bc:5f:da:4f:98:de:61:ea:3a:43:25:4e:
        7f:39:38:11:7d:2a:cf:fe:0c:09:bf:1f:79:56:a6:47:6f:96:
        c1:77:cb:b9:ba:0f:6a:2a:24:bc:d9:7e:40:ed:0c:6b:bd:e3:
        c7:bc:cc:4f
-----BEGIN CERTIFICATE-----
MIIDQzCCAiugAwIBAgIBAjANBgkqhkiG9w0BAQsFADAXMRUwEwYDVQQDDAxMQSBI
YWNrIDIwMTYwHhcNMTYwNzI3MjAxMzA1WhcNMjYwNzI1MjAxMzA1WjAYMRYwFAYD
VQQDDA1hbmRyb2lkY2xpZW50MIIBIjANBgkqhkiG9w0BAQEFAAOCAQ8AMIIBCgKC
AQEA7YtSJWvemwOQuyBSFo4geo/m1mFBOd0dKVKjv1NDBsHxF/b9SoxpH7EArHT9
f4WeuNLmgm0orcCxZmlttiFnj84kc41c82PSGNLkCYuCkR7teLHbaey0A80SALcf
9FfHBUcYAZV4sWfJ/vf9zgF2WJ0+qGxseEDzqXNMXK4xtXBY2SmfbbqvIsMUA9Yz
z0eSn5qlhzeqOgMh+aJr6q9eOKt3zrEz0XEtd4JJesfj5mPQCEIg+nWZN5Mnsrwb
k49P4oE8fFqwcUmoBP6juF3X+1Rc7pe+0jxh1zHJ8i8j2Id1223GvfYfnceZXfr5
n3sG1UPl7hQIbPrwNqod6OwUVwIDAQABo4GYMIGVMAkGA1UdEwQCMAAwHQYDVR0O
BBYEFCfMqY8CTbevdXobpnLJVtJPnl5hMEcGA1UdIwRAMD6AFKnr9VZrNYvrk/4n
f0FT6OTyQt4koRukGTAXMRUwEwYDVQQDDAxMQSBIYWNrIDIwMTaCCQDAGUe2Zrpe
1jATBgNVHSUEDDAKBggrBgEFBQcDAjALBgNVHQ8EBAMCB4AwDQYJKoZIhvcNAQEL
BQADggEBAHaNPYFJ4QJnYWB9Mstsh8WiAYAjr1BldoyR1WKeL6AWzrdd3WDr9Xtq
o/+F0lju5NFjFhyYd5v7Nhyhjk/x9jYN23c/cpmSCdNMUCBc0NH7Oq+4oCY+hceh
64oHPvC1RNieV1bFa9RfDazVRHFDgeBMiCFZbGO01ZMvCTMsq8jsUkvnBM5aYMCU
bTAiJp27Y0+HeIEHKmKaXEvLNhlOwSh363TPP7VGFzc/RIZjd9tRWdnpP9avOeBV
0+CpFVDwST9iANuSghMKW0FEWLxf2k+Y3mHqOkMlTn85OBF9Ks/+DAm/H3lWpkdv
lsF3y7m6D2oqJLzZfkDtDGu948e8zE8=
-----END CERTIFICATE-----
